target datalayout = "e-m:e-p270:32:32-p271:32:32-p272:64:64-i64:64-i128:128-f80:128-n8:16:32:64-S128"
target triple = "x86_64-unknown-linux-gnu"

%struct.Visitor = type { ptr, ptr, ptr, ptr, ptr, ptr, ptr, ptr, ptr, ptr, ptr, ptr, ptr, ptr, ptr, ptr, ptr, ptr, ptr, ptr, i32, %struct.CompatPolicy, ptr, ptr }
%struct.CompatPolicy = type { i8, i32, i8, i32, i8, i32, i8, i32 }
%struct.timeval = type { i64, i64 }

@.str.1 = private unnamed_addr constant [31 x i8] c"../qemu/qapi/qapi-visit-core.c\00", align 1
@.str.5 = private unnamed_addr constant [37 x i8] c"!list || size >= sizeof(GenericList)\00", align 1
@__PRETTY_FUNCTION__.visit_start_list = private unnamed_addr constant [82 x i8] c"_Bool visit_start_list(Visitor *, const char *, GenericList **, size_t, Error **)\00", align 1
@.str.6 = private unnamed_addr constant [13 x i8] c"ok || !*list\00", align 1
@trace_events_enabled_count = external global i32, align 4
@message_with_timestamp = external global i8, align 1
@qemu_loglevel = external global i32, align 4
@_TRACE_VISIT_START_LIST_DSTATE = external global i16, align 2
@.str.29 = private unnamed_addr constant [60 x i8] c"%d@%zu.%06zu:visit_start_list v=%p name=%s obj=%p size=%zu\0A\00", align 1
@.str.30 = private unnamed_addr constant [47 x i8] c"visit_start_list v=%p name=%s obj=%p size=%zu\0A\00", align 1

; Function Attrs: nounwind sspstrong uwtable
define internal zeroext i1 @qemu_loglevel_mask(i32 noundef %mask) #0 {
entry:
  %mask.addr = alloca i32, align 4
  store i32 %mask, ptr %mask.addr, align 4
  %0 = load i32, ptr @qemu_loglevel, align 4
  %1 = load i32, ptr %mask.addr, align 4
  %and = and i32 %0, %1
  %cmp = icmp ne i32 %and, 0
  ret i1 %cmp
}

; Function Attrs: nounwind sspstrong uwtable
define internal void @_nocheck__trace_visit_start_list(ptr noundef %v, ptr noundef %name, ptr noundef %obj, i64 noundef %size) #0 {
entry:
  %v.addr = alloca ptr, align 8
  %name.addr = alloca ptr, align 8
  %obj.addr = alloca ptr, align 8
  %size.addr = alloca i64, align 8
  %_now = alloca %struct.timeval, align 8
  store ptr %v, ptr %v.addr, align 8
  store ptr %name, ptr %name.addr, align 8
  store ptr %obj, ptr %obj.addr, align 8
  store i64 %size, ptr %size.addr, align 8
  %0 = load i32, ptr @trace_events_enabled_count, align 4
  %tobool = icmp ne i32 %0, 0
  %lnot = xor i1 %tobool, true
  %lnot1 = xor i1 %lnot, true
  %lnot.ext = zext i1 %lnot1 to i32
  %conv = sext i32 %lnot.ext to i64
  %tobool2 = icmp ne i64 %conv, 0
  br i1 %tobool2, label %land.lhs.true, label %if.end11

land.lhs.true:                                    ; preds = %entry
  %1 = load i16, ptr @_TRACE_VISIT_START_LIST_DSTATE, align 2
  %conv3 = zext i16 %1 to i32
  %tobool4 = icmp ne i32 %conv3, 0
  br i1 %tobool4, label %land.lhs.true5, label %if.end11

land.lhs.true5:                                   ; preds = %land.lhs.true
  %call = call zeroext i1 @qemu_loglevel_mask(i32 noundef 32768)
  br i1 %call, label %if.then, label %if.end11

if.then:                                          ; preds = %land.lhs.true5
  %2 = load i8, ptr @message_with_timestamp, align 1
  %tobool7 = trunc i8 %2 to i1
  br i1 %tobool7, label %if.then8, label %if.else

if.then8:                                         ; preds = %if.then
  %call9 = call i32 @gettimeofday(ptr noundef %_now, ptr noundef null) #6
  %call10 = call i32 @qemu_get_thread_id()
  %tv_sec = getelementptr inbounds %struct.timeval, ptr %_now, i32 0, i32 0
  %3 = load i64, ptr %tv_sec, align 8
  %tv_usec = getelementptr inbounds %struct.timeval, ptr %_now, i32 0, i32 1
  %4 = load i64, ptr %tv_usec, align 8
  %5 = load ptr, ptr %v.addr, align 8
  %6 = load ptr, ptr %name.addr, align 8
  %7 = load ptr, ptr %obj.addr, align 8
  %8 = load i64, ptr %size.addr, align 8
  call void (ptr, ...) @qemu_log(ptr noundef @.str.29, i32 noundef %call10, i64 noundef %3, i64 noundef %4, ptr noundef %5, ptr noundef %6, ptr noundef %7, i64 noundef %8)
  br label %if.end

if.else:                                          ; preds = %if.then
  %9 = load ptr, ptr %v.addr, align 8
  %10 = load ptr, ptr %name.addr, align 8
  %11 = load ptr, ptr %obj.addr, align 8
  %12 = load i64, ptr %size.addr, align 8
  call void (ptr, ...) @qemu_log(ptr noundef @.str.30, ptr noundef %9, ptr noundef %10, ptr noundef %11, i64 noundef %12)
  br label %if.end

if.end:                                           ; preds = %if.else, %if.then8
  br label %if.end11

if.end11:                                         ; preds = %if.end, %land.lhs.true5, %land.lhs.true, %entry
  ret void
}

; Function Attrs: nounwind sspstrong uwtable
define internal void @trace_visit_start_list(ptr noundef %v, ptr noundef %name, ptr noundef %obj, i64 noundef %size) #0 {
entry:
  %v.addr = alloca ptr, align 8
  %name.addr = alloca ptr, align 8
  %obj.addr = alloca ptr, align 8
  %size.addr = alloca i64, align 8
  store ptr %v, ptr %v.addr, align 8
  store ptr %name, ptr %name.addr, align 8
  store ptr %obj, ptr %obj.addr, align 8
  store i64 %size, ptr %size.addr, align 8
  %0 = load ptr, ptr %v.addr, align 8
  %1 = load ptr, ptr %name.addr, align 8
  %2 = load ptr, ptr %obj.addr, align 8
  %3 = load i64, ptr %size.addr, align 8
  call void @_nocheck__trace_visit_start_list(ptr noundef %0, ptr noundef %1, ptr noundef %2, i64 noundef %3)
  ret void
}

; Function Attrs: nounwind sspstrong uwtable
define dso_local zeroext i1 @visit_start_list(ptr noundef %v, ptr noundef %name, ptr noundef %list, i64 noundef %size, ptr noundef %errp) #0 {
entry:
  %v.addr = alloca ptr, align 8
  %name.addr = alloca ptr, align 8
  %list.addr = alloca ptr, align 8
  %size.addr = alloca i64, align 8
  %errp.addr = alloca ptr, align 8
  %ok = alloca i8, align 1
  store ptr %v, ptr %v.addr, align 8
  store ptr %name, ptr %name.addr, align 8
  store ptr %list, ptr %list.addr, align 8
  store i64 %size, ptr %size.addr, align 8
  store ptr %errp, ptr %errp.addr, align 8
  %0 = load ptr, ptr %list.addr, align 8
  %tobool = icmp ne ptr %0, null
  br i1 %tobool, label %lor.lhs.false, label %if.then

lor.lhs.false:                                    ; preds = %entry
  %1 = load i64, ptr %size.addr, align 8
  %cmp = icmp uge i64 %1, 8
  br i1 %cmp, label %if.then, label %if.else

if.then:                                          ; preds = %lor.lhs.false, %entry
  br label %if.end

if.else:                                          ; preds = %lor.lhs.false
  call void @__assert_fail(ptr noundef @.str.5, ptr noundef @.str.1, i32 noundef 78, ptr noundef @__PRETTY_FUNCTION__.visit_start_list) #5
  unreachable

if.end:                                           ; preds = %if.then
  %2 = load ptr, ptr %v.addr, align 8
  %3 = load ptr, ptr %name.addr, align 8
  %4 = load ptr, ptr %list.addr, align 8
  %5 = load i64, ptr %size.addr, align 8
  call void @trace_visit_start_list(ptr noundef %2, ptr noundef %3, ptr noundef %4, i64 noundef %5)
  %6 = load ptr, ptr %v.addr, align 8
  %start_list = getelementptr inbounds %struct.Visitor, ptr %6, i32 0, i32 3
  %7 = load ptr, ptr %start_list, align 8
  %8 = load ptr, ptr %v.addr, align 8
  %9 = load ptr, ptr %name.addr, align 8
  %10 = load ptr, ptr %list.addr, align 8
  %11 = load i64, ptr %size.addr, align 8
  %12 = load ptr, ptr %errp.addr, align 8
  %call = call zeroext i1 %7(ptr noundef %8, ptr noundef %9, ptr noundef %10, i64 noundef %11, ptr noundef %12)
  %frombool = zext i1 %call to i8
  store i8 %frombool, ptr %ok, align 1
  %13 = load ptr, ptr %list.addr, align 8
  %tobool1 = icmp ne ptr %13, null
  br i1 %tobool1, label %land.lhs.true, label %if.end10

land.lhs.true:                                    ; preds = %if.end
  %14 = load ptr, ptr %v.addr, align 8
  %type = getelementptr inbounds %struct.Visitor, ptr %14, i32 0, i32 20
  %15 = load i32, ptr %type, align 8
  %and = and i32 %15, 1
  %tobool2 = icmp ne i32 %and, 0
  br i1 %tobool2, label %if.then3, label %if.end10

if.then3:                                         ; preds = %land.lhs.true
  %16 = load i8, ptr %ok, align 1
  %tobool4 = trunc i8 %16 to i1
  br i1 %tobool4, label %if.then7, label %lor.lhs.false5

lor.lhs.false5:                                   ; preds = %if.then3
  %17 = load ptr, ptr %list.addr, align 8
  %18 = load ptr, ptr %17, align 8
  %tobool6 = icmp ne ptr %18, null
  br i1 %tobool6, label %if.else8, label %if.then7

if.then7:                                         ; preds = %lor.lhs.false5, %if.then3
  br label %if.end9

if.else8:                                         ; preds = %lor.lhs.false5
  call void @__assert_fail(ptr noundef @.str.6, ptr noundef @.str.1, i32 noundef 82, ptr noundef @__PRETTY_FUNCTION__.visit_start_list) #5
  unreachable

if.end9:                                          ; preds = %if.then7
  br label %if.end10

if.end10:                                         ; preds = %if.end9, %land.lhs.true, %if.end
  %19 = load i8, ptr %ok, align 1
  %tobool11 = trunc i8 %19 to i1
  ret i1 %tobool11
}