; Function Attrs: nounwind sspstrong uwtable
define dso_local zeroext i1 @visit_start_list(ptr noundef %v, ptr noundef %name, ptr noundef %list, i64 noundef %size, ptr noundef %errp) local_unnamed_addr #0 {
entry:
  %_now.i.i = alloca %struct.timeval, align 8
  %tobool = icmp eq ptr %list, null
  %cmp = icmp ugt i64 %size, 7
  %or.cond = or i1 %tobool, %cmp
  br i1 %or.cond, label %if.end, label %if.else

if.else:                                          ; preds = %entry
  tail call void @__assert_fail(ptr noundef nonnull @.str.5, ptr noundef nonnull @.str.1, i32 noundef 78, ptr noundef nonnull @__PRETTY_FUNCTION__.visit_start_list) #9
  unreachable

if.end:                                           ; preds = %entry
  call void @llvm.lifetime.start.p0(i64 16, ptr nonnull %_now.i.i)
  %0 = load i32, ptr @trace_events_enabled_count, align 4
  %tobool.i.i = icmp ne i32 %0, 0
  %1 = load i16, ptr @_TRACE_VISIT_START_LIST_DSTATE, align 2
  %tobool4.i.i = icmp ne i16 %1, 0
  %or.cond.i.i = select i1 %tobool.i.i, i1 %tobool4.i.i, i1 false
  br i1 %or.cond.i.i, label %land.lhs.true5.i.i, label %trace_visit_start_list.exit

land.lhs.true5.i.i:                               ; preds = %if.end
  %2 = load i32, ptr @qemu_loglevel, align 4
  %and.i.i.i = and i32 %2, 32768
  %cmp.i.not.i.i = icmp eq i32 %and.i.i.i, 0
  br i1 %cmp.i.not.i.i, label %trace_visit_start_list.exit, label %if.then.i.i

if.then.i.i:                                      ; preds = %land.lhs.true5.i.i
  %3 = load i8, ptr @message_with_timestamp, align 1
  %tobool7.i.i = trunc i8 %3 to i1
  br i1 %tobool7.i.i, label %if.then8.i.i, label %if.else.i.i

if.then8.i.i:                                     ; preds = %if.then.i.i
  %call9.i.i = call i32 @gettimeofday(ptr noundef nonnull %_now.i.i, ptr noundef null) #10
  %call10.i.i = tail call i32 @qemu_get_thread_id() #10
  %4 = load i64, ptr %_now.i.i, align 8
  %tv_usec.i.i = getelementptr inbounds nuw i8, ptr %_now.i.i, i64 8
  %5 = load i64, ptr %tv_usec.i.i, align 8
  tail call void (ptr, ...) @qemu_log(ptr noundef nonnull @.str.29, i32 noundef %call10.i.i, i64 noundef %4, i64 noundef %5, ptr noundef %v, ptr noundef %name, ptr noundef %list, i64 noundef %size) #10
  br label %trace_visit_start_list.exit

if.else.i.i:                                      ; preds = %if.then.i.i
  tail call void (ptr, ...) @qemu_log(ptr noundef nonnull @.str.30, ptr noundef %v, ptr noundef %name, ptr noundef %list, i64 noundef %size) #10
  br label %trace_visit_start_list.exit

trace_visit_start_list.exit:                      ; preds = %if.end, %land.lhs.true5.i.i, %if.then8.i.i, %if.else.i.i
  call void @llvm.lifetime.end.p0(i64 16, ptr nonnull %_now.i.i)
  %start_list = getelementptr inbounds nuw i8, ptr %v, i64 24
  %6 = load ptr, ptr %start_list, align 8
  %call = tail call zeroext i1 %6(ptr noundef %v, ptr noundef %name, ptr noundef %list, i64 noundef %size, ptr noundef %errp) #10
  br i1 %tobool, label %if.end10, label %land.lhs.true

land.lhs.true:                                    ; preds = %trace_visit_start_list.exit
  %type = getelementptr inbounds nuw i8, ptr %v, i64 160
  %7 = load i32, ptr %type, align 8
  %and = and i32 %7, 1
  %tobool2.not = icmp eq i32 %and, 0
  %brmerge = select i1 %tobool2.not, i1 true, i1 %call
  br i1 %brmerge, label %if.end10, label %lor.lhs.false5

lor.lhs.false5:                                   ; preds = %land.lhs.true
  %8 = load ptr, ptr %list, align 8
  %tobool6.not = icmp eq ptr %8, null
  br i1 %tobool6.not, label %if.end10, label %if.else8

if.else8:                                         ; preds = %lor.lhs.false5
  tail call void @__assert_fail(ptr noundef nonnull @.str.6, ptr noundef nonnull @.str.1, i32 noundef 82, ptr noundef nonnull @__PRETTY_FUNCTION__.visit_start_list) #9
  unreachable

if.end10:                                         ; preds = %land.lhs.true, %lor.lhs.false5, %trace_visit_start_list.exit
  ret i1 %call
}